target datalayout = "e-m:e-p270:32:32-p271:32:32-p272:64:64-i64:64-i128:128-f80:128-n8:16:32:64-S128"
target triple = "x86_64-pc-linux-gnu"

%struct.AVFilterContext = type { ptr, ptr, ptr, ptr, ptr, i32, ptr, ptr, i32, ptr, ptr, i32, i32, ptr, ptr, ptr, ptr, i32, ptr, i32, i32 }
%struct.LimiterContext = type { ptr, i32, i32, i32, i32, [4 x i32], [4 x i32], [4 x i32], %struct.LimiterDSPContext }
%struct.LimiterDSPContext = type { ptr }
%struct.ThreadData = type { ptr, ptr }
%struct.AVChannelLayout = type { i32, i32, %union.anon.1, ptr }
%union.anon.1 = type { i64 }
%struct.AVRational = type { i32, i32 }
%struct.AVFrame = type { [8 x ptr], [8 x i32], ptr, i32, i32, i32, i32, i32, %struct.AVRational, i64, i64, %struct.AVRational, i32, ptr, i32, i32, [8 x ptr], ptr, i32, ptr, i32, i32, i32, i32, i32, i32, i32, i64, ptr, i32, ptr, ptr, i64, i64, i64, i64, ptr, %struct.AVChannelLayout, i64 }

; Function Attrs: nounwind uwtable
define internal i32 @filter_slice(ptr noundef %0, ptr noundef %1, i32 noundef %2, i32 noundef %3) #1 {
  %5 = alloca ptr, align 8
  %6 = alloca ptr, align 8
  %7 = alloca i32, align 4
  %8 = alloca i32, align 4
  %9 = alloca ptr, align 8
  %10 = alloca ptr, align 8
  %11 = alloca ptr, align 8
  %12 = alloca ptr, align 8
  %13 = alloca i32, align 4
  %14 = alloca i32, align 4
  %15 = alloca i32, align 4
  %16 = alloca i32, align 4
  %17 = alloca i32, align 4
  store ptr %0, ptr %5, align 8, !tbaa !4
  store ptr %1, ptr %6, align 8, !tbaa !60
  store i32 %2, ptr %7, align 4, !tbaa !29
  store i32 %3, ptr %8, align 4, !tbaa !29
  call void @llvm.lifetime.start.p0(i64 8, ptr %9) #7
  %18 = load ptr, ptr %5, align 8, !tbaa !4
  %19 = getelementptr inbounds nuw %struct.AVFilterContext, ptr %18, i32 0, i32 9
  %20 = load ptr, ptr %19, align 8, !tbaa !9
  store ptr %20, ptr %9, align 8, !tbaa !22
  call void @llvm.lifetime.start.p0(i64 8, ptr %10) #7
  %21 = load ptr, ptr %6, align 8, !tbaa !60
  store ptr %21, ptr %10, align 8, !tbaa !61
  call void @llvm.lifetime.start.p0(i64 8, ptr %11) #7
  %22 = load ptr, ptr %10, align 8, !tbaa !61
  %23 = getelementptr inbounds nuw %struct.ThreadData, ptr %22, i32 0, i32 0
  %24 = load ptr, ptr %23, align 8, !tbaa !48
  store ptr %24, ptr %11, align 8, !tbaa !33
  call void @llvm.lifetime.start.p0(i64 8, ptr %12) #7
  %25 = load ptr, ptr %10, align 8, !tbaa !61
  %26 = getelementptr inbounds nuw %struct.ThreadData, ptr %25, i32 0, i32 1
  %27 = load ptr, ptr %26, align 8, !tbaa !46
  store ptr %27, ptr %12, align 8, !tbaa !33
  call void @llvm.lifetime.start.p0(i64 4, ptr %13) #7
  store i32 0, ptr %13, align 4, !tbaa !29
  br label %28

28:                                               ; preds = %187, %4
  %29 = load i32, ptr %13, align 4, !tbaa !29
  %30 = load ptr, ptr %9, align 8, !tbaa !22
  %31 = getelementptr inbounds nuw %struct.LimiterContext, ptr %30, i32 0, i32 4
  %32 = load i32, ptr %31, align 4, !tbaa !52
  %33 = icmp slt i32 %29, %32
  br i1 %33, label %34, label %190

34:                                               ; preds = %28
  call void @llvm.lifetime.start.p0(i64 4, ptr %14) #7
  %35 = load ptr, ptr %9, align 8, !tbaa !22
  %36 = getelementptr inbounds nuw %struct.LimiterContext, ptr %35, i32 0, i32 7
  %37 = load i32, ptr %13, align 4, !tbaa !29
  %38 = sext i32 %37 to i64
  %39 = getelementptr inbounds [4 x i32], ptr %36, i64 0, i64 %38
  %40 = load i32, ptr %39, align 4, !tbaa !29
  store i32 %40, ptr %14, align 4, !tbaa !29
  call void @llvm.lifetime.start.p0(i64 4, ptr %15) #7
  %41 = load i32, ptr %14, align 4, !tbaa !29
  %42 = load i32, ptr %7, align 4, !tbaa !29
  %43 = mul nsw i32 %41, %42
  %44 = load i32, ptr %8, align 4, !tbaa !29
  %45 = sdiv i32 %43, %44
  store i32 %45, ptr %15, align 4, !tbaa !29
  call void @llvm.lifetime.start.p0(i64 4, ptr %16) #7
  %46 = load i32, ptr %14, align 4, !tbaa !29
  %47 = load i32, ptr %7, align 4, !tbaa !29
  %48 = add nsw i32 %47, 1
  %49 = mul nsw i32 %46, %48
  %50 = load i32, ptr %8, align 4, !tbaa !29
  %51 = sdiv i32 %49, %50
  store i32 %51, ptr %16, align 4, !tbaa !29
  %52 = load i32, ptr %13, align 4, !tbaa !29
  %53 = shl i32 1, %52
  %54 = load ptr, ptr %9, align 8, !tbaa !22
  %55 = getelementptr inbounds nuw %struct.LimiterContext, ptr %54, i32 0, i32 3
  %56 = load i32, ptr %55, align 8, !tbaa !63
  %57 = and i32 %53, %56
  %58 = icmp ne i32 %57, 0
  br i1 %58, label %118, label %59

59:                                               ; preds = %34
  %60 = load ptr, ptr %12, align 8, !tbaa !33
  %61 = load ptr, ptr %11, align 8, !tbaa !33
  %62 = icmp ne ptr %60, %61
  br i1 %62, label %63, label %117

63:                                               ; preds = %59
  %64 = load ptr, ptr %12, align 8, !tbaa !33
  %65 = getelementptr inbounds nuw %struct.AVFrame, ptr %64, i32 0, i32 0
  %66 = load i32, ptr %13, align 4, !tbaa !29
  %67 = sext i32 %66 to i64
  %68 = getelementptr inbounds [8 x ptr], ptr %65, i64 0, i64 %67
  %69 = load ptr, ptr %68, align 8, !tbaa !28
  %70 = load i32, ptr %15, align 4, !tbaa !29
  %71 = load ptr, ptr %12, align 8, !tbaa !33
  %72 = getelementptr inbounds nuw %struct.AVFrame, ptr %71, i32 0, i32 1
  %73 = load i32, ptr %13, align 4, !tbaa !29
  %74 = sext i32 %73 to i64
  %75 = getelementptr inbounds [8 x i32], ptr %72, i64 0, i64 %74
  %76 = load i32, ptr %75, align 4, !tbaa !29
  %77 = mul nsw i32 %70, %76
  %78 = sext i32 %77 to i64
  %79 = getelementptr inbounds i8, ptr %69, i64 %78
  %80 = load ptr, ptr %12, align 8, !tbaa !33
  %81 = getelementptr inbounds nuw %struct.AVFrame, ptr %80, i32 0, i32 1
  %82 = load i32, ptr %13, align 4, !tbaa !29
  %83 = sext i32 %82 to i64
  %84 = getelementptr inbounds [8 x i32], ptr %81, i64 0, i64 %83
  %85 = load i32, ptr %84, align 4, !tbaa !29
  %86 = load ptr, ptr %11, align 8, !tbaa !33
  %87 = getelementptr inbounds nuw %struct.AVFrame, ptr %86, i32 0, i32 0
  %88 = load i32, ptr %13, align 4, !tbaa !29
  %89 = sext i32 %88 to i64
  %90 = getelementptr inbounds [8 x ptr], ptr %87, i64 0, i64 %89
  %91 = load ptr, ptr %90, align 8, !tbaa !28
  %92 = load i32, ptr %15, align 4, !tbaa !29
  %93 = load ptr, ptr %11, align 8, !tbaa !33
  %94 = getelementptr inbounds nuw %struct.AVFrame, ptr %93, i32 0, i32 1
  %95 = load i32, ptr %13, align 4, !tbaa !29
  %96 = sext i32 %95 to i64
  %97 = getelementptr inbounds [8 x i32], ptr %94, i64 0, i64 %96
  %98 = load i32, ptr %97, align 4, !tbaa !29
  %99 = mul nsw i32 %92, %98
  %100 = sext i32 %99 to i64
  %101 = getelementptr inbounds i8, ptr %91, i64 %100
  %102 = load ptr, ptr %11, align 8, !tbaa !33
  %103 = getelementptr inbounds nuw %struct.AVFrame, ptr %102, i32 0, i32 1
  %104 = load i32, ptr %13, align 4, !tbaa !29
  %105 = sext i32 %104 to i64
  %106 = getelementptr inbounds [8 x i32], ptr %103, i64 0, i64 %105
  %107 = load i32, ptr %106, align 4, !tbaa !29
  %108 = load ptr, ptr %9, align 8, !tbaa !22
  %109 = getelementptr inbounds nuw %struct.LimiterContext, ptr %108, i32 0, i32 5
  %110 = load i32, ptr %13, align 4, !tbaa !29
  %111 = sext i32 %110 to i64
  %112 = getelementptr inbounds [4 x i32], ptr %109, i64 0, i64 %111
  %113 = load i32, ptr %112, align 4, !tbaa !29
  %114 = load i32, ptr %16, align 4, !tbaa !29
  %115 = load i32, ptr %15, align 4, !tbaa !29
  %116 = sub nsw i32 %114, %115
  call void @av_image_copy_plane(ptr noundef %79, i32 noundef %85, ptr noundef %101, i32 noundef %107, i32 noundef %113, i32 noundef %116)
  br label %117

117:                                              ; preds = %63, %59
  store i32 4, ptr %17, align 4
  br label %184

118:                                              ; preds = %34
  %119 = load ptr, ptr %9, align 8, !tbaa !22
  %120 = getelementptr inbounds nuw %struct.LimiterContext, ptr %119, i32 0, i32 8
  %121 = getelementptr inbounds nuw %struct.LimiterDSPContext, ptr %120, i32 0, i32 0
  %122 = load ptr, ptr %121, align 8, !tbaa !59
  %123 = load ptr, ptr %11, align 8, !tbaa !33
  %124 = getelementptr inbounds nuw %struct.AVFrame, ptr %123, i32 0, i32 0
  %125 = load i32, ptr %13, align 4, !tbaa !29
  %126 = sext i32 %125 to i64
  %127 = getelementptr inbounds [8 x ptr], ptr %124, i64 0, i64 %126
  %128 = load ptr, ptr %127, align 8, !tbaa !28
  %129 = load i32, ptr %15, align 4, !tbaa !29
  %130 = load ptr, ptr %11, align 8, !tbaa !33
  %131 = getelementptr inbounds nuw %struct.AVFrame, ptr %130, i32 0, i32 1
  %132 = load i32, ptr %13, align 4, !tbaa !29
  %133 = sext i32 %132 to i64
  %134 = getelementptr inbounds [8 x i32], ptr %131, i64 0, i64 %133
  %135 = load i32, ptr %134, align 4, !tbaa !29
  %136 = mul nsw i32 %129, %135
  %137 = sext i32 %136 to i64
  %138 = getelementptr inbounds i8, ptr %128, i64 %137
  %139 = load ptr, ptr %12, align 8, !tbaa !33
  %140 = getelementptr inbounds nuw %struct.AVFrame, ptr %139, i32 0, i32 0
  %141 = load i32, ptr %13, align 4, !tbaa !29
  %142 = sext i32 %141 to i64
  %143 = getelementptr inbounds [8 x ptr], ptr %140, i64 0, i64 %142
  %144 = load ptr, ptr %143, align 8, !tbaa !28
  %145 = load i32, ptr %15, align 4, !tbaa !29
  %146 = load ptr, ptr %12, align 8, !tbaa !33
  %147 = getelementptr inbounds nuw %struct.AVFrame, ptr %146, i32 0, i32 1
  %148 = load i32, ptr %13, align 4, !tbaa !29
  %149 = sext i32 %148 to i64
  %150 = getelementptr inbounds [8 x i32], ptr %147, i64 0, i64 %149
  %151 = load i32, ptr %150, align 4, !tbaa !29
  %152 = mul nsw i32 %145, %151
  %153 = sext i32 %152 to i64
  %154 = getelementptr inbounds i8, ptr %144, i64 %153
  %155 = load ptr, ptr %11, align 8, !tbaa !33
  %156 = getelementptr inbounds nuw %struct.AVFrame, ptr %155, i32 0, i32 1
  %157 = load i32, ptr %13, align 4, !tbaa !29
  %158 = sext i32 %157 to i64
  %159 = getelementptr inbounds [8 x i32], ptr %156, i64 0, i64 %158
  %160 = load i32, ptr %159, align 4, !tbaa !29
  %161 = sext i32 %160 to i64
  %162 = load ptr, ptr %12, align 8, !tbaa !33
  %163 = getelementptr inbounds nuw %struct.AVFrame, ptr %162, i32 0, i32 1
  %164 = load i32, ptr %13, align 4, !tbaa !29
  %165 = sext i32 %164 to i64
  %166 = getelementptr inbounds [8 x i32], ptr %163, i64 0, i64 %165
  %167 = load i32, ptr %166, align 4, !tbaa !29
  %168 = sext i32 %167 to i64
  %169 = load ptr, ptr %9, align 8, !tbaa !22
  %170 = getelementptr inbounds nuw %struct.LimiterContext, ptr %169, i32 0, i32 6
  %171 = load i32, ptr %13, align 4, !tbaa !29
  %172 = sext i32 %171 to i64
  %173 = getelementptr inbounds [4 x i32], ptr %170, i64 0, i64 %172
  %174 = load i32, ptr %173, align 4, !tbaa !29
  %175 = load i32, ptr %16, align 4, !tbaa !29
  %176 = load i32, ptr %15, align 4, !tbaa !29
  %177 = sub nsw i32 %175, %176
  %178 = load ptr, ptr %9, align 8, !tbaa !22
  %179 = getelementptr inbounds nuw %struct.LimiterContext, ptr %178, i32 0, i32 1
  %180 = load i32, ptr %179, align 8, !tbaa !24
  %181 = load ptr, ptr %9, align 8, !tbaa !22
  %182 = getelementptr inbounds nuw %struct.LimiterContext, ptr %181, i32 0, i32 2
  %183 = load i32, ptr %182, align 4, !tbaa !27
  call void %122(ptr noundef %138, ptr noundef %154, i64 noundef %161, i64 noundef %168, i32 noundef %174, i32 noundef %177, i32 noundef %180, i32 noundef %183)
  store i32 0, ptr %17, align 4
  br label %184

184:                                              ; preds = %118, %117
  call void @llvm.lifetime.end.p0(i64 4, ptr %16) #7
  call void @llvm.lifetime.end.p0(i64 4, ptr %15) #7
  call void @llvm.lifetime.end.p0(i64 4, ptr %14) #7
  %185 = load i32, ptr %17, align 4
  switch i32 %185, label %191 [
    i32 0, label %186
    i32 4, label %187
  ]

186:                                              ; preds = %184
  br label %187

187:                                              ; preds = %186, %184
  %188 = load i32, ptr %13, align 4, !tbaa !29
  %189 = add nsw i32 %188, 1
  store i32 %189, ptr %13, align 4, !tbaa !29
  br label %28, !llvm.loop !64

190:                                              ; preds = %28
  store i32 1, ptr %17, align 4
  call void @llvm.lifetime.end.p0(i64 4, ptr %13) #7
  call void @llvm.lifetime.end.p0(i64 8, ptr %12) #7
  call void @llvm.lifetime.end.p0(i64 8, ptr %11) #7
  call void @llvm.lifetime.end.p0(i64 8, ptr %10) #7
  call void @llvm.lifetime.end.p0(i64 8, ptr %9) #7
  ret i32 0

191:                                              ; preds = %184
  unreachable
}