; Function Attrs: nounwind uwtable
define internal noundef i32 @filter_slice(ptr noundef readonly captures(none) %0, ptr noundef readonly captures(none) %1, i32 noundef %2, i32 noundef %3) #1 {
  %5 = getelementptr inbounds nuw i8, ptr %0, i64 72
  %6 = load ptr, ptr %5, align 8, !tbaa !4
  %7 = load ptr, ptr %1, align 8, !tbaa !43
  %8 = getelementptr inbounds nuw i8, ptr %1, i64 8
  %9 = load ptr, ptr %8, align 8, !tbaa !41
  %10 = getelementptr inbounds nuw i8, ptr %6, i64 20
  %11 = load i32, ptr %10, align 4, !tbaa !46
  %12 = icmp sgt i32 %11, 0
  br i1 %12, label %.lr.ph, label %._crit_edge

.lr.ph:                                           ; preds = %4
  %13 = getelementptr inbounds nuw i8, ptr %6, i64 56
  %14 = add nsw i32 %2, 1
  %15 = getelementptr inbounds nuw i8, ptr %6, i64 16
  %16 = getelementptr inbounds nuw i8, ptr %6, i64 72
  %17 = getelementptr inbounds nuw i8, ptr %7, i64 64
  %18 = getelementptr inbounds nuw i8, ptr %9, i64 64
  %19 = getelementptr inbounds nuw i8, ptr %6, i64 40
  %20 = getelementptr inbounds nuw i8, ptr %6, i64 8
  %21 = getelementptr inbounds nuw i8, ptr %6, i64 12
  %.not59 = icmp eq ptr %9, %7
  %22 = getelementptr inbounds nuw i8, ptr %6, i64 24
  %.not59.fr = freeze i1 %.not59
  br i1 %.not59.fr, label %.lr.ph.split.us, label %.lr.ph.split

.lr.ph.split.us:                                  ; preds = %.lr.ph, %57
  %23 = phi i32 [ %58, %57 ], [ %11, %.lr.ph ]
  %indvars.iv63 = phi i64 [ %indvars.iv.next64, %57 ], [ 0, %.lr.ph ]
  %24 = trunc nuw nsw i64 %indvars.iv63 to i32
  %25 = shl nuw i32 1, %24
  %26 = load i32, ptr %15, align 8, !tbaa !54
  %27 = and i32 %26, %25
  %.not.us = icmp eq i32 %27, 0
  br i1 %.not.us, label %57, label %28

28:                                               ; preds = %.lr.ph.split.us
  %29 = getelementptr inbounds nuw [4 x i32], ptr %13, i64 0, i64 %indvars.iv63
  %30 = load i32, ptr %29, align 4, !tbaa !44
  %31 = mul nsw i32 %30, %14
  %32 = sdiv i32 %31, %3
  %33 = mul nsw i32 %30, %2
  %34 = sdiv i32 %33, %3
  %35 = load ptr, ptr %16, align 8, !tbaa !53
  %36 = getelementptr inbounds nuw [8 x ptr], ptr %7, i64 0, i64 %indvars.iv63
  %37 = load ptr, ptr %36, align 8, !tbaa !55
  %38 = getelementptr inbounds nuw [8 x i32], ptr %17, i64 0, i64 %indvars.iv63
  %39 = load i32, ptr %38, align 4, !tbaa !44
  %40 = mul nsw i32 %39, %34
  %41 = sext i32 %40 to i64
  %42 = getelementptr inbounds i8, ptr %37, i64 %41
  %43 = getelementptr inbounds nuw [8 x ptr], ptr %9, i64 0, i64 %indvars.iv63
  %44 = load ptr, ptr %43, align 8, !tbaa !55
  %45 = getelementptr inbounds nuw [8 x i32], ptr %18, i64 0, i64 %indvars.iv63
  %46 = load i32, ptr %45, align 4, !tbaa !44
  %47 = mul nsw i32 %46, %34
  %48 = sext i32 %47 to i64
  %49 = getelementptr inbounds i8, ptr %44, i64 %48
  %50 = sext i32 %39 to i64
  %51 = sext i32 %46 to i64
  %52 = getelementptr inbounds nuw [4 x i32], ptr %19, i64 0, i64 %indvars.iv63
  %53 = load i32, ptr %52, align 4, !tbaa !44
  %54 = sub nsw i32 %32, %34
  %55 = load i32, ptr %20, align 8, !tbaa !20
  %56 = load i32, ptr %21, align 4, !tbaa !23
  tail call void %35(ptr noundef %42, ptr noundef %49, i64 noundef %50, i64 noundef %51, i32 noundef %53, i32 noundef %54, i32 noundef %55, i32 noundef %56) #7
  %.pre = load i32, ptr %10, align 4, !tbaa !46
  br label %57

57:                                               ; preds = %.lr.ph.split.us, %28
  %58 = phi i32 [ %23, %.lr.ph.split.us ], [ %.pre, %28 ]
  %indvars.iv.next64 = add nuw nsw i64 %indvars.iv63, 1
  %59 = sext i32 %58 to i64
  %60 = icmp slt i64 %indvars.iv.next64, %59
  br i1 %60, label %.lr.ph.split.us, label %._crit_edge, !llvm.loop !56

.lr.ph.split:                                     ; preds = %.lr.ph, %112
  %indvars.iv = phi i64 [ %indvars.iv.next, %112 ], [ 0, %.lr.ph ]
  %61 = getelementptr inbounds nuw [4 x i32], ptr %13, i64 0, i64 %indvars.iv
  %62 = load i32, ptr %61, align 4, !tbaa !44
  %63 = mul nsw i32 %62, %2
  %64 = sdiv i32 %63, %3
  %65 = mul nsw i32 %62, %14
  %66 = sdiv i32 %65, %3
  %67 = trunc nuw nsw i64 %indvars.iv to i32
  %68 = shl nuw i32 1, %67
  %69 = load i32, ptr %15, align 8, !tbaa !54
  %70 = and i32 %69, %68
  %.not = icmp eq i32 %70, 0
  br i1 %.not, label %71, label %89

71:                                               ; preds = %.lr.ph.split
  %72 = getelementptr inbounds nuw [8 x ptr], ptr %9, i64 0, i64 %indvars.iv
  %73 = load ptr, ptr %72, align 8, !tbaa !55
  %74 = getelementptr inbounds nuw [8 x i32], ptr %18, i64 0, i64 %indvars.iv
  %75 = load i32, ptr %74, align 4, !tbaa !44
  %76 = mul nsw i32 %75, %64
  %77 = sext i32 %76 to i64
  %78 = getelementptr inbounds i8, ptr %73, i64 %77
  %79 = getelementptr inbounds nuw [8 x ptr], ptr %7, i64 0, i64 %indvars.iv
  %80 = load ptr, ptr %79, align 8, !tbaa !55
  %81 = getelementptr inbounds nuw [8 x i32], ptr %17, i64 0, i64 %indvars.iv
  %82 = load i32, ptr %81, align 4, !tbaa !44
  %83 = mul nsw i32 %82, %64
  %84 = sext i32 %83 to i64
  %85 = getelementptr inbounds i8, ptr %80, i64 %84
  %86 = getelementptr inbounds nuw [4 x i32], ptr %22, i64 0, i64 %indvars.iv
  %87 = load i32, ptr %86, align 4, !tbaa !44
  %88 = sub nsw i32 %66, %64
  tail call void @av_image_copy_plane(ptr noundef %78, i32 noundef %75, ptr noundef %85, i32 noundef %82, i32 noundef %87, i32 noundef %88) #7
  br label %112

89:                                               ; preds = %.lr.ph.split
  %90 = load ptr, ptr %16, align 8, !tbaa !53
  %91 = getelementptr inbounds nuw [8 x ptr], ptr %7, i64 0, i64 %indvars.iv
  %92 = load ptr, ptr %91, align 8, !tbaa !55
  %93 = getelementptr inbounds nuw [8 x i32], ptr %17, i64 0, i64 %indvars.iv
  %94 = load i32, ptr %93, align 4, !tbaa !44
  %95 = mul nsw i32 %94, %64
  %96 = sext i32 %95 to i64
  %97 = getelementptr inbounds i8, ptr %92, i64 %96
  %98 = getelementptr inbounds nuw [8 x ptr], ptr %9, i64 0, i64 %indvars.iv
  %99 = load ptr, ptr %98, align 8, !tbaa !55
  %100 = getelementptr inbounds nuw [8 x i32], ptr %18, i64 0, i64 %indvars.iv
  %101 = load i32, ptr %100, align 4, !tbaa !44
  %102 = mul nsw i32 %101, %64
  %103 = sext i32 %102 to i64
  %104 = getelementptr inbounds i8, ptr %99, i64 %103
  %105 = sext i32 %94 to i64
  %106 = sext i32 %101 to i64
  %107 = getelementptr inbounds nuw [4 x i32], ptr %19, i64 0, i64 %indvars.iv
  %108 = load i32, ptr %107, align 4, !tbaa !44
  %109 = sub nsw i32 %66, %64
  %110 = load i32, ptr %20, align 8, !tbaa !20
  %111 = load i32, ptr %21, align 4, !tbaa !23
  tail call void %90(ptr noundef %97, ptr noundef %104, i64 noundef %105, i64 noundef %106, i32 noundef %108, i32 noundef %109, i32 noundef %110, i32 noundef %111) #7
  br label %112

112:                                              ; preds = %71, %89
  %indvars.iv.next = add nuw nsw i64 %indvars.iv, 1
  %113 = load i32, ptr %10, align 4, !tbaa !46
  %114 = sext i32 %113 to i64
  %115 = icmp slt i64 %indvars.iv.next, %114
  br i1 %115, label %.lr.ph.split, label %._crit_edge, !llvm.loop !56

._crit_edge:                                      ; preds = %112, %57, %4
  ret i32 0
}